target datalayout = "e-m:e-p270:32:32-p271:32:32-p272:64:64-i64:64-i128:128-f80:128-n8:16:32:64-S128"
target triple = "x86_64-pc-linux-gnu"

; Function Attrs: mustprogress uwtable
define noundef zeroext i1 @_ZN4cvc56parser24GetInstantiationsCommand9isEnabledEPNS_6SolverERKNS_6ResultE(ptr noundef %0, ptr noundef nonnull align 8 dereferenceable(16) %1) #4 align 2 {
  %3 = alloca ptr, align 8
  %4 = alloca ptr, align 8
  store ptr %0, ptr %3, align 8, !tbaa !28
  store ptr %1, ptr %4, align 8, !tbaa !120
  %5 = load ptr, ptr %4, align 8, !tbaa !120
  %6 = call noundef zeroext i1 @_ZNK4cvc56Result5isSatEv(ptr noundef nonnull align 8 dereferenceable(16) %5)
  br i1 %6, label %17, label %7

7:                                                ; preds = %2
  %8 = load ptr, ptr %4, align 8, !tbaa !120
  %9 = call noundef zeroext i1 @_ZNK4cvc56Result9isUnknownEv(ptr noundef nonnull align 8 dereferenceable(16) %8)
  br i1 %9, label %10, label %14

10:                                               ; preds = %7
  %11 = load ptr, ptr %4, align 8, !tbaa !120
  %12 = call noundef i32 @_ZNK4cvc56Result21getUnknownExplanationEv(ptr noundef nonnull align 8 dereferenceable(16) %11)
  %13 = icmp eq i32 %12, 1
  br i1 %13, label %17, label %14

14:                                               ; preds = %10, %7
  %15 = load ptr, ptr %4, align 8, !tbaa !120
  %16 = call noundef zeroext i1 @_ZNK4cvc56Result7isUnsatEv(ptr noundef nonnull align 8 dereferenceable(16) %15)
  br label %17

17:                                               ; preds = %14, %10, %2
  %18 = phi i1 [ true, %10 ], [ true, %2 ], [ %16, %14 ]
  ret i1 %18
}