; Function Attrs: mustprogress uwtable
define noundef zeroext i1 @_ZN4cvc56parser24GetInstantiationsCommand9isEnabledEPNS_6SolverERKNS_6ResultE(ptr noundef readnone captures(none) %0, ptr noundef nonnull align 8 dereferenceable(16) %1) local_unnamed_addr #3 align 2 {
  %3 = tail call noundef zeroext i1 @_ZNK4cvc56Result5isSatEv(ptr noundef nonnull align 8 dereferenceable(16) %1)
  br i1 %3, label %11, label %4

4:                                                ; preds = %2
  %5 = tail call noundef zeroext i1 @_ZNK4cvc56Result9isUnknownEv(ptr noundef nonnull align 8 dereferenceable(16) %1)
  br i1 %5, label %6, label %9

6:                                                ; preds = %4
  %7 = tail call noundef i32 @_ZNK4cvc56Result21getUnknownExplanationEv(ptr noundef nonnull align 8 dereferenceable(16) %1)
  %8 = icmp eq i32 %7, 1
  br i1 %8, label %11, label %9

9:                                                ; preds = %6, %4
  %10 = tail call noundef zeroext i1 @_ZNK4cvc56Result7isUnsatEv(ptr noundef nonnull align 8 dereferenceable(16) %1)
  br label %11

11:                                               ; preds = %9, %6, %2
  %12 = phi i1 [ true, %6 ], [ true, %2 ], [ %10, %9 ]
  ret i1 %12
}